; ModuleID = '55/352.c'
source_filename = "55/352.c"
target datalayout = "e-m:e-p270:32:32-p271:32:32-p272:64:64-i64:64-f80:128-n8:16:32:64-S128"
target triple = "x86_64-pc-linux-gnu"

@.str = private unnamed_addr constant [9 x i8] c"%d %s %d\00", align 1
@.str.1 = private unnamed_addr constant [3 x i8] c"%c\00", align 1
@.str.2 = private unnamed_addr constant [2 x i8] c"\0A\00", align 1
@.str.3 = private unnamed_addr constant [3 x i8] c"0\0A\00", align 1

; Function Attrs: noinline nounwind uwtable
define dso_local void @main() #0 {
  %1 = alloca i32, align 4
  %2 = alloca i32, align 4
  %3 = alloca i32, align 4
  %4 = alloca i32, align 4
  %5 = alloca i32, align 4
  %6 = alloca [100 x i8], align 16
  %7 = alloca [100 x i8], align 16
  store i32 0, i32* %5, align 4
  %8 = getelementptr inbounds [100 x i8], [100 x i8]* %6, i64 0, i64 0
  %9 = call i32 (i8*, ...) @__isoc99_scanf(i8* getelementptr inbounds ([9 x i8], [9 x i8]* @.str, i64 0, i64 0), i32* %1, i8* %8, i32* %2)
  %10 = getelementptr inbounds [100 x i8], [100 x i8]* %6, i64 0, i64 0
  %11 = call i64 @strlen(i8* %10) #3
  %12 = trunc i64 %11 to i32
  store i32 %12, i32* %3, align 4
  store i32 0, i32* %4, align 4
  br label %13

13:                                               ; preds = %79, %0
  %14 = load i32, i32* %4, align 4
  %15 = load i32, i32* %3, align 4
  %16 = icmp slt i32 %14, %15
  br i1 %16, label %17, label %82

17:                                               ; preds = %13
  %18 = load i32, i32* %1, align 4
  %19 = load i32, i32* %5, align 4
  %20 = mul nsw i32 %19, %18
  store i32 %20, i32* %5, align 4
  %21 = load i32, i32* %4, align 4
  %22 = sext i32 %21 to i64
  %23 = getelementptr inbounds [100 x i8], [100 x i8]* %6, i64 0, i64 %22
  %24 = load i8, i8* %23, align 1
  %25 = sext i8 %24 to i32
  %26 = icmp sge i32 %25, 48
  br i1 %26, label %27, label %43

27:                                               ; preds = %17
  %28 = load i32, i32* %4, align 4
  %29 = sext i32 %28 to i64
  %30 = getelementptr inbounds [100 x i8], [100 x i8]* %6, i64 0, i64 %29
  %31 = load i8, i8* %30, align 1
  %32 = sext i8 %31 to i32
  %33 = icmp sle i32 %32, 57
  br i1 %33, label %34, label %43

34:                                               ; preds = %27
  %35 = load i32, i32* %4, align 4
  %36 = sext i32 %35 to i64
  %37 = getelementptr inbounds [100 x i8], [100 x i8]* %6, i64 0, i64 %36
  %38 = load i8, i8* %37, align 1
  %39 = sext i8 %38 to i32
  %40 = sub nsw i32 %39, 48
  %41 = load i32, i32* %5, align 4
  %42 = add nsw i32 %41, %40
  store i32 %42, i32* %5, align 4
  br label %78

43:                                               ; preds = %27, %17
  %44 = load i32, i32* %4, align 4
  %45 = sext i32 %44 to i64
  %46 = getelementptr inbounds [100 x i8], [100 x i8]* %6, i64 0, i64 %45
  %47 = load i8, i8* %46, align 1
  %48 = sext i8 %47 to i32
  %49 = icmp sge i32 %48, 97
  br i1 %49, label %50, label %67

50:                                               ; preds = %43
  %51 = load i32, i32* %4, align 4
  %52 = sext i32 %51 to i64
  %53 = getelementptr inbounds [100 x i8], [100 x i8]* %6, i64 0, i64 %52
  %54 = load i8, i8* %53, align 1
  %55 = sext i8 %54 to i32
  %56 = icmp sle i32 %55, 122
  br i1 %56, label %57, label %67

57:                                               ; preds = %50
  %58 = load i32, i32* %4, align 4
  %59 = sext i32 %58 to i64
  %60 = getelementptr inbounds [100 x i8], [100 x i8]* %6, i64 0, i64 %59
  %61 = load i8, i8* %60, align 1
  %62 = sext i8 %61 to i32
  %63 = sub nsw i32 %62, 97
  %64 = add nsw i32 %63, 10
  %65 = load i32, i32* %5, align 4
  %66 = add nsw i32 %65, %64
  store i32 %66, i32* %5, align 4
  br label %77

67:                                               ; preds = %50, %43
  %68 = load i32, i32* %4, align 4
  %69 = sext i32 %68 to i64
  %70 = getelementptr inbounds [100 x i8], [100 x i8]* %6, i64 0, i64 %69
  %71 = load i8, i8* %70, align 1
  %72 = sext i8 %71 to i32
  %73 = sub nsw i32 %72, 65
  %74 = add nsw i32 %73, 10
  %75 = load i32, i32* %5, align 4
  %76 = add nsw i32 %75, %74
  store i32 %76, i32* %5, align 4
  br label %77

77:                                               ; preds = %67, %57
  br label %78

78:                                               ; preds = %77, %34
  br label %79

79:                                               ; preds = %78
  %80 = load i32, i32* %4, align 4
  %81 = add nsw i32 %80, 1
  store i32 %81, i32* %4, align 4
  br label %13

82:                                               ; preds = %13
  %83 = load i32, i32* %5, align 4
  %84 = icmp ne i32 %83, 0
  br i1 %84, label %85, label %147

85:                                               ; preds = %82
  store i32 0, i32* %4, align 4
  br label %86

86:                                               ; preds = %126, %85
  %87 = load i32, i32* %5, align 4
  %88 = icmp ne i32 %87, 0
  br i1 %88, label %89, label %129

89:                                               ; preds = %86
  %90 = load i32, i32* %5, align 4
  %91 = load i32, i32* %2, align 4
  %92 = srem i32 %90, %91
  %93 = icmp sge i32 %92, 0
  br i1 %93, label %94, label %108

94:                                               ; preds = %89
  %95 = load i32, i32* %5, align 4
  %96 = load i32, i32* %2, align 4
  %97 = srem i32 %95, %96
  %98 = icmp sle i32 %97, 9
  br i1 %98, label %99, label %108

99:                                               ; preds = %94
  %100 = load i32, i32* %5, align 4
  %101 = load i32, i32* %2, align 4
  %102 = srem i32 %100, %101
  %103 = add nsw i32 %102, 48
  %104 = trunc i32 %103 to i8
  %105 = load i32, i32* %4, align 4
  %106 = sext i32 %105 to i64
  %107 = getelementptr inbounds [100 x i8], [100 x i8]* %7, i64 0, i64 %106
  store i8 %104, i8* %107, align 1
  br label %118

108:                                              ; preds = %94, %89
  %109 = load i32, i32* %5, align 4
  %110 = load i32, i32* %2, align 4
  %111 = srem i32 %109, %110
  %112 = sub nsw i32 %111, 10
  %113 = add nsw i32 %112, 65
  %114 = trunc i32 %113 to i8
  %115 = load i32, i32* %4, align 4
  %116 = sext i32 %115 to i64
  %117 = getelementptr inbounds [100 x i8], [100 x i8]* %7, i64 0, i64 %116
  store i8 %114, i8* %117, align 1
  br label %118

118:                                              ; preds = %108, %99
  %119 = load i32, i32* %5, align 4
  %120 = load i32, i32* %5, align 4
  %121 = load i32, i32* %2, align 4
  %122 = srem i32 %120, %121
  %123 = sub nsw i32 %119, %122
  %124 = load i32, i32* %2, align 4
  %125 = sdiv i32 %123, %124
  store i32 %125, i32* %5, align 4
  br label %126

126:                                              ; preds = %118
  %127 = load i32, i32* %4, align 4
  %128 = add nsw i32 %127, 1
  store i32 %128, i32* %4, align 4
  br label %86

129:                                              ; preds = %86
  %130 = load i32, i32* %4, align 4
  %131 = sub nsw i32 %130, 1
  store i32 %131, i32* %5, align 4
  br label %132

132:                                              ; preds = %142, %129
  %133 = load i32, i32* %5, align 4
  %134 = icmp sge i32 %133, 0
  br i1 %134, label %135, label %145

135:                                              ; preds = %132
  %136 = load i32, i32* %5, align 4
  %137 = sext i32 %136 to i64
  %138 = getelementptr inbounds [100 x i8], [100 x i8]* %7, i64 0, i64 %137
  %139 = load i8, i8* %138, align 1
  %140 = sext i8 %139 to i32
  %141 = call i32 (i8*, ...) @printf(i8* getelementptr inbounds ([3 x i8], [3 x i8]* @.str.1, i64 0, i64 0), i32 %140)
  br label %142

142:                                              ; preds = %135
  %143 = load i32, i32* %5, align 4
  %144 = add nsw i32 %143, -1
  store i32 %144, i32* %5, align 4
  br label %132

145:                                              ; preds = %132
  %146 = call i32 (i8*, ...) @printf(i8* getelementptr inbounds ([2 x i8], [2 x i8]* @.str.2, i64 0, i64 0))
  br label %149

147:                                              ; preds = %82
  %148 = call i32 (i8*, ...) @printf(i8* getelementptr inbounds ([3 x i8], [3 x i8]* @.str.3, i64 0, i64 0))
  br label %149

149:                                              ; preds = %147, %145
  ret void
}

declare dso_local i32 @__isoc99_scanf(i8*, ...) #1

; Function Attrs: nounwind readonly
declare dso_local i64 @strlen(i8*) #2

declare dso_local i32 @printf(i8*, ...) #1


!llvm.module.flags = !{!0}
!llvm.ident = !{!1}

!0 = !{i32 1, !"wchar_size", i32 4}
!1 = !{!"clang version 10.0.0-4ubuntu1 "}
